; Function Attrs: mustprogress uwtable
define noundef i32 @_ZN3gmx18nonbondedMtsFactorERK10t_inputrec(ptr nocapture noundef nonnull readonly align 8 dereferenceable(856) %0) local_unnamed_addr #4 {
  %2 = getelementptr inbounds i8, ptr %0, i64 96
  %3 = load i8, ptr %2, align 8
  %4 = trunc i8 %3 to i1
  br i1 %4, label %5, label %.thread5

5:                                                ; preds = %1
  %6 = getelementptr inbounds i8, ptr %0, i64 104
  %7 = getelementptr inbounds i8, ptr %0, i64 112
  %8 = load ptr, ptr %7, align 8
  %9 = load ptr, ptr %6, align 8
  %10 = ptrtoint ptr %8 to i64
  %11 = ptrtoint ptr %9 to i64
  %12 = sub i64 %10, %11
  %13 = icmp eq i64 %12, 32
  br i1 %13, label %15, label %14

14:                                               ; preds = %5
  tail call void @_ZN3gmx8internal13assertHandlerEPKcS2_S2_S2_i(ptr noundef nonnull @.str.8, ptr noundef nonnull @.str.9, ptr noundef nonnull @"__PRETTY_FUNCTION__._ZZN3gmx18nonbondedMtsFactorERK10t_inputrecENK3$_0clEv", ptr noundef nonnull @.str.10, i32 noundef 51) #21
  unreachable

15:                                               ; preds = %5
  %16 = getelementptr inbounds i8, ptr %9, i64 16
  %17 = load i64, ptr %16, align 8
  %18 = and i64 %17, 2
  %.not = icmp eq i64 %18, 0
  br i1 %.not, label %.thread5, label %19

19:                                               ; preds = %15
  %20 = getelementptr inbounds i8, ptr %9, i64 24
  %21 = load i32, ptr %20, align 8
  br label %.thread5

.thread5:                                         ; preds = %1, %15, %19
  %.0 = phi i32 [ %21, %19 ], [ 1, %15 ], [ 1, %1 ]
  ret i32 %.0
}